target datalayout = "e-m:e-p270:32:32-p271:32:32-p272:64:64-i64:64-i128:128-f80:128-n8:16:32:64-S128"
target triple = "x86_64-pc-linux-gnu"

%struct._CharList = type { ptr, ptr }

; Function Attrs: nounwind uwtable
define dso_local ptr @pkg_prependToList(ptr noundef %0, ptr noundef %1) #0 {
  %3 = alloca ptr, align 8
  %4 = alloca ptr, align 8
  %5 = alloca ptr, align 8
  %6 = alloca ptr, align 8
  %7 = alloca i32, align 4
  store ptr %0, ptr %4, align 8, !tbaa !9
  store ptr %1, ptr %5, align 8, !tbaa !11
  call void @llvm.lifetime.start.p0(i64 8, ptr %6) #7
  %8 = call noalias ptr @uprv_malloc_77(i64 noundef 16) #10
  store ptr %8, ptr %6, align 8, !tbaa !9
  %9 = load ptr, ptr %6, align 8, !tbaa !9
  %10 = icmp eq ptr %9, null
  br i1 %10, label %11, label %12

11:                                               ; preds = %2
  store ptr null, ptr %3, align 8
  store i32 1, ptr %7, align 4
  br label %20

12:                                               ; preds = %2
  %13 = load ptr, ptr %5, align 8, !tbaa !11
  %14 = load ptr, ptr %6, align 8, !tbaa !9
  %15 = getelementptr inbounds nuw %struct._CharList, ptr %14, i32 0, i32 0
  store ptr %13, ptr %15, align 8, !tbaa !15
  %16 = load ptr, ptr %4, align 8, !tbaa !9
  %17 = load ptr, ptr %6, align 8, !tbaa !9
  %18 = getelementptr inbounds nuw %struct._CharList, ptr %17, i32 0, i32 1
  store ptr %16, ptr %18, align 8, !tbaa !18
  %19 = load ptr, ptr %6, align 8, !tbaa !9
  store ptr %19, ptr %3, align 8
  store i32 1, ptr %7, align 4
  br label %20

20:                                               ; preds = %12, %11
  call void @llvm.lifetime.end.p0(i64 8, ptr %6) #7
  %21 = load ptr, ptr %3, align 8
  ret ptr %21
}

; Function Attrs: nounwind uwtable
define dso_local ptr @pkg_appendToList(ptr noundef %0, ptr noundef %1, ptr noundef %2) #0 {
  %4 = alloca ptr, align 8
  %5 = alloca ptr, align 8
  %6 = alloca ptr, align 8
  %7 = alloca ptr, align 8
  %8 = alloca ptr, align 8
  store ptr %0, ptr %4, align 8, !tbaa !9
  store ptr %1, ptr %5, align 8, !tbaa !25
  store ptr %2, ptr %6, align 8, !tbaa !11
  call void @llvm.lifetime.start.p0(i64 8, ptr %7) #7
  store ptr null, ptr %7, align 8, !tbaa !9
  call void @llvm.lifetime.start.p0(i64 8, ptr %8) #7
  %9 = load ptr, ptr %5, align 8, !tbaa !25
  %10 = icmp eq ptr %9, null
  br i1 %10, label %11, label %12

11:                                               ; preds = %3
  store ptr %7, ptr %5, align 8, !tbaa !25
  br label %12

12:                                               ; preds = %11, %3
  %13 = load ptr, ptr %5, align 8, !tbaa !25
  %14 = load ptr, ptr %13, align 8, !tbaa !9
  %15 = icmp eq ptr %14, null
  br i1 %15, label %16, label %33

16:                                               ; preds = %12
  %17 = load ptr, ptr %4, align 8, !tbaa !9
  %18 = icmp ne ptr %17, null
  br i1 %18, label %19, label %33

19:                                               ; preds = %16
  %20 = load ptr, ptr %4, align 8, !tbaa !9
  store ptr %20, ptr %8, align 8, !tbaa !9
  br label %21

21:                                               ; preds = %26, %19
  %22 = load ptr, ptr %8, align 8, !tbaa !9
  %23 = getelementptr inbounds nuw %struct._CharList, ptr %22, i32 0, i32 1
  %24 = load ptr, ptr %23, align 8, !tbaa !18
  %25 = icmp ne ptr %24, null
  br i1 %25, label %26, label %30

26:                                               ; preds = %21
  %27 = load ptr, ptr %8, align 8, !tbaa !9
  %28 = getelementptr inbounds nuw %struct._CharList, ptr %27, i32 0, i32 1
  %29 = load ptr, ptr %28, align 8, !tbaa !18
  store ptr %29, ptr %8, align 8, !tbaa !9
  br label %21, !llvm.loop !28

30:                                               ; preds = %21
  %31 = load ptr, ptr %8, align 8, !tbaa !9
  %32 = load ptr, ptr %5, align 8, !tbaa !25
  store ptr %31, ptr %32, align 8, !tbaa !9
  br label %33

33:                                               ; preds = %30, %16, %12
  %34 = load ptr, ptr %4, align 8, !tbaa !9
  %35 = icmp eq ptr %34, null
  br i1 %35, label %36, label %39

36:                                               ; preds = %33
  %37 = load ptr, ptr %6, align 8, !tbaa !11
  %38 = call ptr @pkg_prependToList(ptr noundef null, ptr noundef %37)
  store ptr %38, ptr %4, align 8, !tbaa !9
  br label %45

39:                                               ; preds = %33
  %40 = load ptr, ptr %6, align 8, !tbaa !11
  %41 = call ptr @pkg_prependToList(ptr noundef null, ptr noundef %40)
  %42 = load ptr, ptr %5, align 8, !tbaa !25
  %43 = load ptr, ptr %42, align 8, !tbaa !9
  %44 = getelementptr inbounds nuw %struct._CharList, ptr %43, i32 0, i32 1
  store ptr %41, ptr %44, align 8, !tbaa !18
  br label %45

45:                                               ; preds = %39, %36
  %46 = load ptr, ptr %5, align 8, !tbaa !25
  %47 = load ptr, ptr %46, align 8, !tbaa !9
  %48 = icmp ne ptr %47, null
  br i1 %48, label %49, label %55

49:                                               ; preds = %45
  %50 = load ptr, ptr %5, align 8, !tbaa !25
  %51 = load ptr, ptr %50, align 8, !tbaa !9
  %52 = getelementptr inbounds nuw %struct._CharList, ptr %51, i32 0, i32 1
  %53 = load ptr, ptr %52, align 8, !tbaa !18
  %54 = load ptr, ptr %5, align 8, !tbaa !25
  store ptr %53, ptr %54, align 8, !tbaa !9
  br label %58

55:                                               ; preds = %45
  %56 = load ptr, ptr %4, align 8, !tbaa !9
  %57 = load ptr, ptr %5, align 8, !tbaa !25
  store ptr %56, ptr %57, align 8, !tbaa !9
  br label %58

58:                                               ; preds = %55, %49
  %59 = load ptr, ptr %4, align 8, !tbaa !9
  call void @llvm.lifetime.end.p0(i64 8, ptr %8) #7
  call void @llvm.lifetime.end.p0(i64 8, ptr %7) #7
  ret ptr %59
}