; Function Attrs: nounwind uwtable
define dso_local noundef ptr @pkg_appendToList(ptr noundef %0, ptr noundef %1, ptr noundef %2) local_unnamed_addr #0 {
  %4 = icmp eq ptr %1, null
  br i1 %4, label %.cont32, label %.else34

.else34:                                          ; preds = %3
  %.else.val35 = load ptr, ptr %1, align 8, !tbaa !19
  %5 = icmp eq ptr %.else.val35, null
  br label %.cont32

.cont32:                                          ; preds = %3, %.else34
  %6 = phi i1 [ true, %3 ], [ %5, %.else34 ]
  %7 = icmp ne ptr %0, null
  %or.cond = and i1 %7, %6
  br i1 %or.cond, label %.preheader, label %.cont29

.preheader:                                       ; preds = %.cont32, %.preheader
  %.0 = phi ptr [ %9, %.preheader ], [ %0, %.cont32 ]
  %8 = getelementptr inbounds nuw i8, ptr %.0, i64 8
  %9 = load ptr, ptr %8, align 8, !tbaa !12
  %.not = icmp eq ptr %9, null
  br i1 %.not, label %10, label %.preheader, !llvm.loop !20

10:                                               ; preds = %.preheader
  br i1 %4, label %.cont29.thread, label %.else31

.else31:                                          ; preds = %10
  store ptr %.0, ptr %1, align 8, !tbaa !19
  br label %.cont29.thread

.cont29:                                          ; preds = %.cont32
  %11 = icmp eq ptr %0, null
  br i1 %11, label %12, label %.cont29.thread

12:                                               ; preds = %.cont29
  %13 = tail call noalias dereferenceable_or_null(16) ptr @uprv_malloc_77(i64 noundef 16) #15
  %14 = icmp eq ptr %13, null
  br i1 %14, label %pkg_prependToList.exit, label %15

15:                                               ; preds = %12
  store ptr %2, ptr %13, align 8, !tbaa !4
  br label %pkg_prependToList.exit.sink.split

.cont29.thread:                                   ; preds = %10, %.else31, %.cont29
  %.03639 = phi ptr [ null, %.cont29 ], [ %.0, %10 ], [ null, %.else31 ]
  %16 = tail call noalias dereferenceable_or_null(16) ptr @uprv_malloc_77(i64 noundef 16) #15
  %17 = icmp eq ptr %16, null
  br i1 %17, label %pkg_prependToList.exit24, label %18

18:                                               ; preds = %.cont29.thread
  store ptr %2, ptr %16, align 8, !tbaa !4
  %19 = getelementptr inbounds nuw i8, ptr %16, i64 8
  store ptr null, ptr %19, align 8, !tbaa !12
  br label %pkg_prependToList.exit24

pkg_prependToList.exit24:                         ; preds = %.cont29.thread, %18
  br i1 %4, label %pkg_prependToList.exit.sink.split, label %pkg_prependToList.exit24.else

pkg_prependToList.exit24.else:                    ; preds = %pkg_prependToList.exit24
  %.else.val = load ptr, ptr %1, align 8, !tbaa !19
  br label %pkg_prependToList.exit.sink.split

pkg_prependToList.exit.sink.split:                ; preds = %pkg_prependToList.exit24.else, %pkg_prependToList.exit24, %15
  %.sink41 = phi ptr [ %13, %15 ], [ %.03639, %pkg_prependToList.exit24 ], [ %.else.val, %pkg_prependToList.exit24.else ]
  %.sink = phi ptr [ null, %15 ], [ %16, %pkg_prependToList.exit24 ], [ %16, %pkg_prependToList.exit24.else ]
  %.03638.ph = phi ptr [ null, %15 ], [ %.03639, %pkg_prependToList.exit24 ], [ %.03639, %pkg_prependToList.exit24.else ]
  %.019.ph = phi ptr [ %13, %15 ], [ %0, %pkg_prependToList.exit24 ], [ %0, %pkg_prependToList.exit24.else ]
  %20 = getelementptr inbounds nuw i8, ptr %.sink41, i64 8
  store ptr %.sink, ptr %20, align 8, !tbaa !12
  br label %pkg_prependToList.exit

pkg_prependToList.exit:                           ; preds = %pkg_prependToList.exit.sink.split, %12
  %.03638 = phi ptr [ null, %12 ], [ %.03638.ph, %pkg_prependToList.exit.sink.split ]
  %.019 = phi ptr [ null, %12 ], [ %.019.ph, %pkg_prependToList.exit.sink.split ]
  br i1 %4, label %.cont25, label %.else27

.else27:                                          ; preds = %pkg_prependToList.exit
  %.else.val28 = load ptr, ptr %1, align 8, !tbaa !19
  br label %.cont25

.cont25:                                          ; preds = %pkg_prependToList.exit, %.else27
  %21 = phi ptr [ %.03638, %pkg_prependToList.exit ], [ %.else.val28, %.else27 ]
  %.not23 = icmp eq ptr %21, null
  br i1 %.not23, label %25, label %22

22:                                               ; preds = %.cont25
  %23 = getelementptr inbounds nuw i8, ptr %21, i64 8
  %24 = load ptr, ptr %23, align 8, !tbaa !12
  br label %25

25:                                               ; preds = %.cont25, %22
  %storemerge = phi ptr [ %24, %22 ], [ %.019, %.cont25 ]
  br i1 %4, label %.cont, label %.else

.else:                                            ; preds = %25
  store ptr %storemerge, ptr %1, align 8, !tbaa !19
  br label %.cont

.cont:                                            ; preds = %25, %.else
  ret ptr %.019
}